target datalayout = "e-m:e-p270:32:32-p271:32:32-p272:64:64-i64:64-i128:128-f80:128-n8:16:32:64-S128"
target triple = "x86_64-pc-linux-gnu"

%struct.object_id = type { [32 x i8], i32 }
%struct.option = type { i32, i32, ptr, ptr, ptr, ptr, i32, ptr, i64, ptr, i64, ptr }

@the_repository = external global ptr, align 8
@ref_stash = internal constant [11 x i8] c"refs/stash\00", align 1
@.str.25 = private unnamed_addr constant [1 x i8] zeroinitializer, align 1
@git_gettext_enabled = external global i32, align 4
@git_stash_clear_usage = internal constant [2 x ptr] [ptr @.str.62, ptr null], align 16
@.str.61 = private unnamed_addr constant [48 x i8] c"git stash clear with arguments is unimplemented\00", align 1

; Function Attrs: nounwind uwtable
define internal i32 @do_clear_stash() #0 {
  %1 = alloca i32, align 4
  %2 = alloca %struct.object_id, align 4
  %3 = alloca i32, align 4
  call void @llvm.lifetime.start.p0(i64 36, ptr %2) #9
  %4 = load ptr, ptr @the_repository, align 8, !tbaa !13
  %5 = call i32 @repo_get_oid(ptr noundef %4, ptr noundef @ref_stash, ptr noundef %2)
  %6 = icmp ne i32 %5, 0
  br i1 %6, label %7, label %8

7:                                                ; preds = %0
  store i32 0, ptr %1, align 4
  store i32 1, ptr %3, align 4
  br label %12

8:                                                ; preds = %0
  %9 = load ptr, ptr @the_repository, align 8, !tbaa !13
  %10 = call ptr @get_main_ref_store(ptr noundef %9)
  %11 = call i32 @refs_delete_ref(ptr noundef %10, ptr noundef null, ptr noundef @ref_stash, ptr noundef %2, i32 noundef 0)
  store i32 %11, ptr %1, align 4
  store i32 1, ptr %3, align 4
  br label %12

12:                                               ; preds = %8, %7
  call void @llvm.lifetime.end.p0(i64 36, ptr %2) #9
  %13 = load i32, ptr %1, align 4
  ret i32 %13
}

; Function Attrs: inlinehint nounwind uwtable
define internal i32 @const_error() #5 {
  ret i32 -1
}

; Function Attrs: inlinehint nounwind uwtable
define internal ptr @_(ptr noundef %0) #5 {
  %2 = alloca ptr, align 8
  %3 = alloca ptr, align 8
  store ptr %0, ptr %3, align 8, !tbaa !11
  %4 = load ptr, ptr %3, align 8, !tbaa !11
  %5 = load i8, ptr %4, align 1, !tbaa !58
  %6 = icmp ne i8 %5, 0
  br i1 %6, label %8, label %7

7:                                                ; preds = %1
  store ptr @.str.25, ptr %2, align 8
  br label %16

8:                                                ; preds = %1
  %9 = load i32, ptr @git_gettext_enabled, align 4, !tbaa !4
  %10 = icmp ne i32 %9, 0
  br i1 %10, label %13, label %11

11:                                               ; preds = %8
  %12 = load ptr, ptr %3, align 8, !tbaa !11
  store ptr %12, ptr %2, align 8
  br label %16

13:                                               ; preds = %8
  %14 = load ptr, ptr %3, align 8, !tbaa !11
  %15 = call ptr @dcgettext(ptr noundef null, ptr noundef %14, i32 noundef 5) #9
  store ptr %15, ptr %2, align 8
  br label %16

16:                                               ; preds = %13, %11, %7
  %17 = load ptr, ptr %2, align 8
  ret ptr %17
}

; Function Attrs: nounwind uwtable
define internal i32 @clear_stash(i32 noundef %0, ptr noundef %1, ptr noundef %2, ptr noundef %3) #0 {
  %5 = alloca i32, align 4
  %6 = alloca i32, align 4
  %7 = alloca ptr, align 8
  %8 = alloca ptr, align 8
  %9 = alloca ptr, align 8
  %10 = alloca [1 x %struct.option], align 16
  %11 = alloca i32, align 4
  store i32 %0, ptr %6, align 4, !tbaa !4
  store ptr %1, ptr %7, align 8, !tbaa !8
  store ptr %2, ptr %8, align 8, !tbaa !11
  store ptr %3, ptr %9, align 8, !tbaa !13
  call void @llvm.lifetime.start.p0(i64 88, ptr %10) #9
  call void @llvm.memset.p0.i64(ptr align 16 %10, i8 0, i64 88, i1 false)
  %12 = load i32, ptr %6, align 4, !tbaa !4
  %13 = load ptr, ptr %7, align 8, !tbaa !8
  %14 = load ptr, ptr %8, align 8, !tbaa !11
  %15 = getelementptr inbounds [1 x %struct.option], ptr %10, i64 0, i64 0
  %16 = call i32 @parse_options(i32 noundef %12, ptr noundef %13, ptr noundef %14, ptr noundef %15, ptr noundef @git_stash_clear_usage, i32 noundef 2)
  store i32 %16, ptr %6, align 4, !tbaa !4
  %17 = load i32, ptr %6, align 4, !tbaa !4
  %18 = icmp ne i32 %17, 0
  br i1 %18, label %19, label %23

19:                                               ; preds = %4
  %20 = call ptr @_(ptr noundef @.str.61)
  %21 = call i32 (ptr, ...) @error(ptr noundef %20)
  %22 = call i32 @const_error()
  store i32 %22, ptr %5, align 4
  store i32 1, ptr %11, align 4
  br label %25

23:                                               ; preds = %4
  %24 = call i32 @do_clear_stash()
  store i32 %24, ptr %5, align 4
  store i32 1, ptr %11, align 4
  br label %25

25:                                               ; preds = %23, %19
  call void @llvm.lifetime.end.p0(i64 88, ptr %10) #9
  %26 = load i32, ptr %5, align 4
  ret i32 %26
}