; Function Attrs: nounwind uwtable
define internal i32 @clear_stash(i32 noundef %0, ptr noundef %1, ptr noundef %2, ptr readnone captures(none) %3) #0 {
  %5 = alloca %struct.object_id, align 4
  %6 = alloca [1 x %struct.option], align 16
  call void @llvm.lifetime.start.p0(i64 88, ptr nonnull %6) #15
  call void @llvm.memset.p0.i64(ptr noundef nonnull align 16 dereferenceable(88) %6, i8 0, i64 88, i1 false)
  %7 = call i32 @parse_options(i32 noundef %0, ptr noundef %1, ptr noundef %2, ptr noundef nonnull %6, ptr noundef nonnull @git_stash_clear_usage, i32 noundef 2) #15
  %.not = icmp eq i32 %7, 0
  br i1 %.not, label %13, label %8

8:                                                ; preds = %4
  %9 = load i32, ptr @git_gettext_enabled, align 4, !tbaa !42
  %.not4.i = icmp eq i32 %9, 0
  br i1 %.not4.i, label %_.exit, label %10

10:                                               ; preds = %8
  %11 = call ptr @dcgettext(ptr noundef null, ptr noundef nonnull @.str.61, i32 noundef 5) #15
  br label %_.exit

_.exit:                                           ; preds = %8, %10
  %.0.i = phi ptr [ %11, %10 ], [ @.str.61, %8 ]
  %12 = call i32 (ptr, ...) @error(ptr noundef %.0.i) #15
  br label %20

13:                                               ; preds = %4
  call void @llvm.lifetime.start.p0(i64 36, ptr nonnull %5) #15
  %14 = load ptr, ptr @the_repository, align 8, !tbaa !18
  %15 = call i32 @repo_get_oid(ptr noundef %14, ptr noundef nonnull @ref_stash, ptr noundef nonnull %5) #15
  %.not.i = icmp eq i32 %15, 0
  br i1 %.not.i, label %16, label %do_clear_stash.exit

16:                                               ; preds = %13
  %17 = load ptr, ptr @the_repository, align 8, !tbaa !18
  %18 = call ptr @get_main_ref_store(ptr noundef %17) #15
  %19 = call i32 @refs_delete_ref(ptr noundef %18, ptr noundef null, ptr noundef nonnull @ref_stash, ptr noundef nonnull %5, i32 noundef 0) #15
  br label %do_clear_stash.exit

do_clear_stash.exit:                              ; preds = %13, %16
  %.0.i4 = phi i32 [ %19, %16 ], [ 0, %13 ]
  call void @llvm.lifetime.end.p0(i64 36, ptr nonnull %5) #15
  br label %20

20:                                               ; preds = %do_clear_stash.exit, %_.exit
  %.0 = phi i32 [ -1, %_.exit ], [ %.0.i4, %do_clear_stash.exit ]
  call void @llvm.lifetime.end.p0(i64 88, ptr nonnull %6) #15
  ret i32 %.0
}